; Function Attrs: mustprogress nounwind uwtable
define hidden noundef i32 @_ZNK19OpenColorIO_v2_4dev18FormatMetadataImpl18findNamedAttributeERKNSt7__cxx1112basic_stringIcSt11char_traitsIcESaIcEEE(ptr nocapture noundef nonnull readonly align 8 dereferenceable(120) %this, ptr noundef nonnull align 8 dereferenceable(32) %name) local_unnamed_addr #4 align 2 personality ptr @__gxx_personality_v0 {
entry:
  %m_attributes = getelementptr inbounds i8, ptr %this, i64 72
  %0 = load ptr, ptr %m_attributes, align 8
  %_M_finish.i = getelementptr inbounds i8, ptr %this, i64 80
  %1 = load ptr, ptr %_M_finish.i, align 8
  %cmp.i.not5 = icmp eq ptr %0, %1
  br i1 %cmp.i.not5, label %return, label %for.body

for.body:                                         ; preds = %entry, %if.end
  %i.07 = phi i32 [ %inc, %if.end ], [ 0, %entry ]
  %__begin1.sroa.0.06 = phi ptr [ %incdec.ptr.i, %if.end ], [ %0, %entry ]
  %call6 = tail call noundef ptr @_ZNKSt7__cxx1112basic_stringIcSt11char_traitsIcESaIcEE5c_strEv(ptr noundef nonnull align 8 dereferenceable(32) %name) #17
  %call7 = tail call noundef ptr @_ZNKSt7__cxx1112basic_stringIcSt11char_traitsIcESaIcEE5c_strEv(ptr noundef nonnull align 8 dereferenceable(32) %__begin1.sroa.0.06) #17
  %call8 = invoke noundef i32 @_ZN19OpenColorIO_v2_4dev8Platform10StrcasecmpEPKcS2_(ptr noundef %call6, ptr noundef %call7)
          to label %invoke.cont unwind label %terminate.lpad

invoke.cont:                                      ; preds = %for.body
  %cmp = icmp eq i32 %call8, 0
  br i1 %cmp, label %return, label %if.end

if.end:                                           ; preds = %invoke.cont
  %inc = add nuw nsw i32 %i.07, 1
  %incdec.ptr.i = getelementptr inbounds i8, ptr %__begin1.sroa.0.06, i64 64
  %cmp.i.not = icmp eq ptr %incdec.ptr.i, %1
  br i1 %cmp.i.not, label %return, label %for.body

return:                                           ; preds = %invoke.cont, %if.end, %entry
  %retval.0 = phi i32 [ -1, %entry ], [ -1, %if.end ], [ %i.07, %invoke.cont ]
  ret i32 %retval.0

terminate.lpad:                                   ; preds = %for.body
  %2 = landingpad { ptr, i32 }
          catch ptr null
  %3 = extractvalue { ptr, i32 } %2, 0
  tail call void @__clang_call_terminate(ptr %3) #21
  unreachable
}